target datalayout = "e-m:e-p270:32:32-p271:32:32-p272:64:64-i64:64-i128:128-f80:128-n8:16:32:64-S128"
target triple = "x86_64-unknown-linux-gnu"

%"class.cvc5::context::Scope" = type { ptr, ptr, i32, ptr, %"class.std::vector.10" }
%"class.std::vector.10" = type { %"struct.std::_Vector_base.11" }
%"struct.std::_Vector_base.11" = type { %"struct.std::_Vector_base<cvc5::context::ContextObj *, std::allocator<cvc5::context::ContextObj *>>::_Vector_impl" }
%"struct.std::_Vector_base<cvc5::context::ContextObj *, std::allocator<cvc5::context::ContextObj *>>::_Vector_impl" = type { %"struct.std::_Vector_base<cvc5::context::ContextObj *, std::allocator<cvc5::context::ContextObj *>>::_Vector_impl_data" }
%"struct.std::_Vector_base<cvc5::context::ContextObj *, std::allocator<cvc5::context::ContextObj *>>::_Vector_impl_data" = type { ptr, ptr, ptr }
%"class.cvc5::context::ContextObj" = type { ptr, ptr, ptr, ptr, ptr }

@.str.12 = private unnamed_addr constant [7 x i8] c"Scope \00", align 1
@.str.13 = private unnamed_addr constant [3 x i8] c" [\00", align 1
@.str.14 = private unnamed_addr constant [3 x i8] c"]:\00", align 1
@.str.15 = private unnamed_addr constant [7 x i8] c" <--> \00", align 1
@.str.16 = private unnamed_addr constant [15 x i8] c" XXX bad scope\00", align 1
@.str.17 = private unnamed_addr constant [10 x i8] c" --> NULL\00", align 1

; Function Attrs: mustprogress nounwind uwtable
define linkonce_odr hidden noundef nonnull align 8 dereferenceable(8) ptr @_ZN4cvc57context10ContextObj4nextEv(ptr noundef nonnull align 8 dereferenceable(40) %this) #5 comdat align 2 {
entry:
  %this.addr = alloca ptr, align 8
  store ptr %this, ptr %this.addr, align 8
  %this1 = load ptr, ptr %this.addr, align 8
  %d_pContextObjNext = getelementptr inbounds %"class.cvc5::context::ContextObj", ptr %this1, i32 0, i32 3
  ret ptr %d_pContextObjNext
}

; Function Attrs: mustprogress uwtable
define hidden noundef nonnull align 8 dereferenceable(8) ptr @_ZN4cvc57contextlsERSoRKNS0_5ScopeE(ptr noundef nonnull align 8 dereferenceable(8) %out, ptr noundef nonnull align 8 dereferenceable(56) %scope) #4 {
entry:
  %out.addr = alloca ptr, align 8
  %scope.addr = alloca ptr, align 8
  %pContextObj = alloca ptr, align 8
  store ptr %out, ptr %out.addr, align 8
  store ptr %scope, ptr %scope.addr, align 8
  %0 = load ptr, ptr %out.addr, align 8
  %call = call noundef nonnull align 8 dereferenceable(8) ptr @_ZStlsISt11char_traitsIcEERSt13basic_ostreamIcT_ES5_PKc(ptr noundef nonnull align 8 dereferenceable(8) %0, ptr noundef @.str.12)
  %1 = load ptr, ptr %scope.addr, align 8
  %d_level = getelementptr inbounds %"class.cvc5::context::Scope", ptr %1, i32 0, i32 2
  %2 = load i32, ptr %d_level, align 8
  %call1 = call noundef nonnull align 8 dereferenceable(8) ptr @_ZNSolsEj(ptr noundef nonnull align 8 dereferenceable(8) %call, i32 noundef %2)
  %call2 = call noundef nonnull align 8 dereferenceable(8) ptr @_ZStlsISt11char_traitsIcEERSt13basic_ostreamIcT_ES5_PKc(ptr noundef nonnull align 8 dereferenceable(8) %call1, ptr noundef @.str.13)
  %3 = load ptr, ptr %scope.addr, align 8
  %call3 = call noundef nonnull align 8 dereferenceable(8) ptr @_ZNSolsEPKv(ptr noundef nonnull align 8 dereferenceable(8) %call2, ptr noundef %3)
  %call4 = call noundef nonnull align 8 dereferenceable(8) ptr @_ZStlsISt11char_traitsIcEERSt13basic_ostreamIcT_ES5_PKc(ptr noundef nonnull align 8 dereferenceable(8) %call3, ptr noundef @.str.14)
  %4 = load ptr, ptr %scope.addr, align 8
  %d_pContextObjList = getelementptr inbounds %"class.cvc5::context::Scope", ptr %4, i32 0, i32 3
  %5 = load ptr, ptr %d_pContextObjList, align 8
  store ptr %5, ptr %pContextObj, align 8
  br label %while.cond

while.cond:                                       ; preds = %if.end, %entry
  %6 = load ptr, ptr %pContextObj, align 8
  %cmp = icmp ne ptr %6, null
  br i1 %cmp, label %while.body, label %while.end

while.body:                                       ; preds = %while.cond
  %7 = load ptr, ptr %out.addr, align 8
  %call5 = call noundef nonnull align 8 dereferenceable(8) ptr @_ZStlsISt11char_traitsIcEERSt13basic_ostreamIcT_ES5_PKc(ptr noundef nonnull align 8 dereferenceable(8) %7, ptr noundef @.str.15)
  %8 = load ptr, ptr %pContextObj, align 8
  %call6 = call noundef nonnull align 8 dereferenceable(8) ptr @_ZNSolsEPKv(ptr noundef nonnull align 8 dereferenceable(8) %call5, ptr noundef %8)
  %9 = load ptr, ptr %pContextObj, align 8
  %d_pScope = getelementptr inbounds %"class.cvc5::context::ContextObj", ptr %9, i32 0, i32 1
  %10 = load ptr, ptr %d_pScope, align 8
  %11 = load ptr, ptr %scope.addr, align 8
  %cmp7 = icmp ne ptr %10, %11
  br i1 %cmp7, label %if.then, label %if.end

if.then:                                          ; preds = %while.body
  %12 = load ptr, ptr %out.addr, align 8
  %call8 = call noundef nonnull align 8 dereferenceable(8) ptr @_ZStlsISt11char_traitsIcEERSt13basic_ostreamIcT_ES5_PKc(ptr noundef nonnull align 8 dereferenceable(8) %12, ptr noundef @.str.16)
  %call9 = call noundef nonnull align 8 dereferenceable(8) ptr @_ZNSolsEPFRSoS_E(ptr noundef nonnull align 8 dereferenceable(8) %call8, ptr noundef @_ZSt4endlIcSt11char_traitsIcEERSt13basic_ostreamIT_T0_ES6_)
  br label %if.end

if.end:                                           ; preds = %if.then, %while.body
  %13 = load ptr, ptr %pContextObj, align 8
  %call10 = call noundef nonnull align 8 dereferenceable(8) ptr @_ZN4cvc57context10ContextObj4nextEv(ptr noundef nonnull align 8 dereferenceable(40) %13)
  %14 = load ptr, ptr %call10, align 8
  store ptr %14, ptr %pContextObj, align 8
  br label %while.cond, !llvm.loop !29

while.end:                                        ; preds = %while.cond
  %15 = load ptr, ptr %out.addr, align 8
  %call11 = call noundef nonnull align 8 dereferenceable(8) ptr @_ZStlsISt11char_traitsIcEERSt13basic_ostreamIcT_ES5_PKc(ptr noundef nonnull align 8 dereferenceable(8) %15, ptr noundef @.str.17)
  ret ptr %call11
}