; Function Attrs: mustprogress uwtable
define hidden noundef nonnull align 8 dereferenceable(8) ptr @_ZN4cvc57contextlsERSoRKNS0_5ScopeE(ptr noundef nonnull align 8 dereferenceable(8) %out, ptr noundef nonnull align 8 dereferenceable(56) %scope) local_unnamed_addr #3 {
entry:
  %call = tail call noundef nonnull align 8 dereferenceable(8) ptr @_ZStlsISt11char_traitsIcEERSt13basic_ostreamIcT_ES5_PKc(ptr noundef nonnull align 8 dereferenceable(8) %out, ptr noundef nonnull @.str.12)
  %d_level = getelementptr inbounds i8, ptr %scope, i64 16
  %0 = load i32, ptr %d_level, align 8
  %call1 = tail call noundef nonnull align 8 dereferenceable(8) ptr @_ZNSolsEj(ptr noundef nonnull align 8 dereferenceable(8) %call, i32 noundef %0)
  %call2 = tail call noundef nonnull align 8 dereferenceable(8) ptr @_ZStlsISt11char_traitsIcEERSt13basic_ostreamIcT_ES5_PKc(ptr noundef nonnull align 8 dereferenceable(8) %call1, ptr noundef nonnull @.str.13)
  %call3 = tail call noundef nonnull align 8 dereferenceable(8) ptr @_ZNSolsEPKv(ptr noundef nonnull align 8 dereferenceable(8) %call2, ptr noundef nonnull %scope)
  %call4 = tail call noundef nonnull align 8 dereferenceable(8) ptr @_ZStlsISt11char_traitsIcEERSt13basic_ostreamIcT_ES5_PKc(ptr noundef nonnull align 8 dereferenceable(8) %call3, ptr noundef nonnull @.str.14)
  %pContextObj.0.in10 = getelementptr inbounds i8, ptr %scope, i64 24
  %pContextObj.011 = load ptr, ptr %pContextObj.0.in10, align 8
  %cmp.not12 = icmp eq ptr %pContextObj.011, null
  br i1 %cmp.not12, label %while.end, label %while.body

while.body:                                       ; preds = %entry, %if.end
  %pContextObj.013 = phi ptr [ %pContextObj.0, %if.end ], [ %pContextObj.011, %entry ]
  %call5 = tail call noundef nonnull align 8 dereferenceable(8) ptr @_ZStlsISt11char_traitsIcEERSt13basic_ostreamIcT_ES5_PKc(ptr noundef nonnull align 8 dereferenceable(8) %out, ptr noundef nonnull @.str.15)
  %call6 = tail call noundef nonnull align 8 dereferenceable(8) ptr @_ZNSolsEPKv(ptr noundef nonnull align 8 dereferenceable(8) %call5, ptr noundef nonnull %pContextObj.013)
  %d_pScope = getelementptr inbounds i8, ptr %pContextObj.013, i64 8
  %1 = load ptr, ptr %d_pScope, align 8
  %cmp7.not = icmp eq ptr %1, %scope
  br i1 %cmp7.not, label %if.end, label %if.then

if.then:                                          ; preds = %while.body
  %call8 = tail call noundef nonnull align 8 dereferenceable(8) ptr @_ZStlsISt11char_traitsIcEERSt13basic_ostreamIcT_ES5_PKc(ptr noundef nonnull align 8 dereferenceable(8) %out, ptr noundef nonnull @.str.16)
  %call9 = tail call noundef nonnull align 8 dereferenceable(8) ptr @_ZNSolsEPFRSoS_E(ptr noundef nonnull align 8 dereferenceable(8) %call8, ptr noundef nonnull @_ZSt4endlIcSt11char_traitsIcEERSt13basic_ostreamIT_T0_ES6_)
  br label %if.end

if.end:                                           ; preds = %if.then, %while.body
  %pContextObj.0.in = getelementptr inbounds i8, ptr %pContextObj.013, i64 24
  %pContextObj.0 = load ptr, ptr %pContextObj.0.in, align 8
  %cmp.not = icmp eq ptr %pContextObj.0, null
  br i1 %cmp.not, label %while.end, label %while.body, !llvm.loop !16

while.end:                                        ; preds = %if.end, %entry
  %call11 = tail call noundef nonnull align 8 dereferenceable(8) ptr @_ZStlsISt11char_traitsIcEERSt13basic_ostreamIcT_ES5_PKc(ptr noundef nonnull align 8 dereferenceable(8) %out, ptr noundef nonnull @.str.17)
  ret ptr %call11
}